; Function Attrs: mustprogress uwtable
define hidden void @_ZN6Assimp18ZipArchiveIOSystemC2EPNS_8IOSystemERKNSt7__cxx1112basic_stringIcSt11char_traitsIcESaIcEEEPKc(ptr noundef nonnull align 8 dereferenceable(40) %this, ptr noundef %pIOHandler, ptr noundef nonnull align 8 dereferenceable(32) %rFilename, ptr noundef readnone %pMode) unnamed_addr #2 align 2 personality ptr @__gxx_personality_v0 {
entry:
  %mapping.i = alloca %struct.zlib_filefunc_def_s, align 8
  %m_pathStack.i = getelementptr inbounds i8, ptr %this, i64 8
  tail call void @llvm.memset.p0.i64(ptr noundef nonnull align 8 dereferenceable(24) %m_pathStack.i, i8 0, i64 24, i1 false)
  store ptr getelementptr inbounds ({ [16 x ptr] }, ptr @_ZTVN6Assimp18ZipArchiveIOSystemE, i64 0, i32 0, i64 2), ptr %this, align 8
  %call = invoke noalias noundef nonnull dereferenceable(56) ptr @_Znwm(i64 noundef 56) #30
          to label %invoke.cont unwind label %lpad

invoke.cont:                                      ; preds = %entry
  %call2 = tail call noundef ptr @_ZNKSt7__cxx1112basic_stringIcSt11char_traitsIcESaIcEE5c_strEv(ptr noundef nonnull align 8 dereferenceable(32) %rFilename) #28
  call void @llvm.lifetime.start.p0(i64 64, ptr nonnull %mapping.i)
  store ptr null, ptr %call, align 8
  %0 = getelementptr inbounds i8, ptr %call, i64 16
  store i32 0, ptr %0, align 8
  %_M_parent.i.i.i.i.i.i = getelementptr inbounds i8, ptr %call, i64 24
  store ptr null, ptr %_M_parent.i.i.i.i.i.i, align 8
  %_M_left.i.i.i.i.i.i = getelementptr inbounds i8, ptr %call, i64 32
  store ptr %0, ptr %_M_left.i.i.i.i.i.i, align 8
  %_M_right.i.i.i.i.i.i = getelementptr inbounds i8, ptr %call, i64 40
  store ptr %0, ptr %_M_right.i.i.i.i.i.i, align 8
  %_M_node_count.i.i.i.i.i.i = getelementptr inbounds i8, ptr %call, i64 48
  store i64 0, ptr %_M_node_count.i.i.i.i.i.i, align 8
  %1 = load i8, ptr %call2, align 1
  %cmp.i = icmp eq i8 %1, 0
  %cmp2.i = icmp eq ptr %pMode, null
  %or.cond.i = or i1 %cmp2.i, %cmp.i
  br i1 %or.cond.i, label %invoke.cont4, label %if.end.i

if.end.i:                                         ; preds = %invoke.cont
  store ptr @_ZN6Assimp14IOSystem2Unzip4openEPvPKci, ptr %mapping.i, align 8, !alias.scope !19
  %zread_file.i.i = getelementptr inbounds i8, ptr %mapping.i, i64 8
  store ptr @_ZN6Assimp14IOSystem2Unzip4readEPvS1_S1_m, ptr %zread_file.i.i, align 8, !alias.scope !19
  %zwrite_file.i.i = getelementptr inbounds i8, ptr %mapping.i, i64 16
  store ptr @_ZN6Assimp14IOSystem2Unzip5writeEPvS1_PKvm, ptr %zwrite_file.i.i, align 8, !alias.scope !19
  %ztell_file.i.i = getelementptr inbounds i8, ptr %mapping.i, i64 24
  store ptr @_ZN6Assimp14IOSystem2Unzip4tellEPvS1_, ptr %ztell_file.i.i, align 8, !alias.scope !19
  %zseek_file.i.i = getelementptr inbounds i8, ptr %mapping.i, i64 32
  store ptr @_ZN6Assimp14IOSystem2Unzip4seekEPvS1_mi, ptr %zseek_file.i.i, align 8, !alias.scope !19
  %zclose_file.i.i = getelementptr inbounds i8, ptr %mapping.i, i64 40
  store ptr @_ZN6Assimp14IOSystem2Unzip5closeEPvS1_, ptr %zclose_file.i.i, align 8, !alias.scope !19
  %zerror_file.i.i = getelementptr inbounds i8, ptr %mapping.i, i64 48
  store ptr @_ZN6Assimp14IOSystem2Unzip9testerrorEPvS1_, ptr %zerror_file.i.i, align 8, !alias.scope !19
  %opaque.i.i = getelementptr inbounds i8, ptr %mapping.i, i64 56
  store ptr %pIOHandler, ptr %opaque.i.i, align 8, !alias.scope !19
  %call.i = invoke ptr @unzOpen2(ptr noundef nonnull %call2, ptr noundef nonnull %mapping.i)
          to label %invoke.cont.i unwind label %lpad.i

invoke.cont.i:                                    ; preds = %if.end.i
  store ptr %call.i, ptr %call, align 8
  br label %invoke.cont4

lpad.i:                                           ; preds = %if.end.i
  %2 = landingpad { ptr, i32 }
          cleanup
  %m_ArchiveMap.i = getelementptr inbounds i8, ptr %call, i64 8
  call void @_ZNSt3mapINSt7__cxx1112basic_stringIcSt11char_traitsIcESaIcEEEN6Assimp11ZipFileInfoESt4lessIS5_ESaISt4pairIKS5_S7_EEED2Ev(ptr noundef nonnull align 8 dereferenceable(48) %m_ArchiveMap.i) #28
  call void @_ZdlPv(ptr noundef nonnull %call) #31
  br label %ehcleanup

invoke.cont4:                                     ; preds = %invoke.cont.i, %invoke.cont
  call void @llvm.lifetime.end.p0(i64 64, ptr nonnull %mapping.i)
  %pImpl = getelementptr inbounds i8, ptr %this, i64 32
  store ptr %call, ptr %pImpl, align 8
  ret void

lpad:                                             ; preds = %entry
  %3 = landingpad { ptr, i32 }
          cleanup
  br label %ehcleanup

ehcleanup:                                        ; preds = %lpad.i, %lpad
  %.pn = phi { ptr, i32 } [ %2, %lpad.i ], [ %3, %lpad ]
  call void @_ZN6Assimp8IOSystemD2Ev(ptr noundef nonnull align 8 dereferenceable(32) %this) #28
  resume { ptr, i32 } %.pn
}